; Function Attrs: nounwind uwtable
define dso_local noalias ptr @SSL_TEST_CTX_new(ptr noundef %0) local_unnamed_addr #1 {
  %2 = tail call noalias ptr @CRYPTO_zalloc(i64 noundef 584, ptr noundef nonnull @.str, i32 noundef 744) #8
  %.not = icmp eq ptr %2, null
  br i1 %.not, label %7, label %3

3:                                                ; preds = %1
  %4 = getelementptr inbounds nuw i8, ptr %2, i64 568
  store ptr %0, ptr %4, align 8, !tbaa !14
  %5 = getelementptr inbounds nuw i8, ptr %2, i64 8
  store i32 256, ptr %5, align 8, !tbaa !21
  %6 = getelementptr inbounds nuw i8, ptr %2, i64 12
  store i32 512, ptr %6, align 4, !tbaa !22
  br label %7

7:                                                ; preds = %3, %1
  ret ptr %2
}